target datalayout = "e-m:e-p270:32:32-p271:32:32-p272:64:64-i64:64-i128:128-f80:128-n8:16:32:64-S128"
target triple = "x86_64-pc-linux-gnu"

%"class.G1NUMAStats::NodeDataArray" = type { i32, i32, ptr }

; Function Attrs: mustprogress nounwind uwtable
define hidden void @_ZN11G1NUMAStats13NodeDataArray5clearEv(ptr noundef nonnull align 8 dereferenceable(16) %0) #1 align 2 {
  %2 = alloca ptr, align 8
  %3 = alloca i32, align 4
  store ptr %0, ptr %2, align 8
  %4 = load ptr, ptr %2, align 8
  store i32 0, ptr %3, align 4
  br label %5

5:                                                ; preds = %21, %1
  %6 = load i32, ptr %3, align 4
  %7 = getelementptr inbounds %"class.G1NUMAStats::NodeDataArray", ptr %4, i32 0, i32 1
  %8 = load i32, ptr %7, align 4
  %9 = icmp ult i32 %6, %8
  br i1 %9, label %10, label %24

10:                                               ; preds = %5
  %11 = getelementptr inbounds %"class.G1NUMAStats::NodeDataArray", ptr %4, i32 0, i32 2
  %12 = load ptr, ptr %11, align 8
  %13 = load i32, ptr %3, align 4
  %14 = zext i32 %13 to i64
  %15 = getelementptr inbounds ptr, ptr %12, i64 %14
  %16 = load ptr, ptr %15, align 8
  %17 = getelementptr inbounds %"class.G1NUMAStats::NodeDataArray", ptr %4, i32 0, i32 0
  %18 = load i32, ptr %17, align 8
  %19 = zext i32 %18 to i64
  %20 = mul i64 8, %19
  call void @llvm.memset.p0.i64(ptr align 1 %16, i8 0, i64 %20, i1 false)
  br label %21

21:                                               ; preds = %10
  %22 = load i32, ptr %3, align 4
  %23 = add i32 %22, 1
  store i32 %23, ptr %3, align 4
  br label %5, !llvm.loop !8

24:                                               ; preds = %5
  ret void
}

; Function Attrs: mustprogress nounwind uwtable
define hidden void @_ZN11G1NUMAStats13NodeDataArrayC2Ej(ptr noundef nonnull align 8 dereferenceable(16) %0, i32 noundef %1) unnamed_addr #1 align 2 {
  %3 = alloca ptr, align 8
  %4 = alloca i32, align 4
  %5 = alloca i32, align 4
  store ptr %0, ptr %3, align 8
  store i32 %1, ptr %4, align 4
  %6 = load ptr, ptr %3, align 8
  %7 = load i32, ptr %4, align 4
  %8 = getelementptr inbounds %"class.G1NUMAStats::NodeDataArray", ptr %6, i32 0, i32 0
  store i32 %7, ptr %8, align 8
  %9 = load i32, ptr %4, align 4
  %10 = add i32 %9, 1
  %11 = getelementptr inbounds %"class.G1NUMAStats::NodeDataArray", ptr %6, i32 0, i32 1
  store i32 %10, ptr %11, align 4
  %12 = getelementptr inbounds %"class.G1NUMAStats::NodeDataArray", ptr %6, i32 0, i32 1
  %13 = load i32, ptr %12, align 4
  %14 = zext i32 %13 to i64
  %15 = mul i64 %14, 8
  %16 = call noundef ptr @_Z12AllocateHeapm8MEMFLAGSN17AllocFailStrategy13AllocFailEnumE(i64 noundef %15, i8 noundef zeroext 5, i32 noundef 0)
  %17 = getelementptr inbounds %"class.G1NUMAStats::NodeDataArray", ptr %6, i32 0, i32 2
  store ptr %16, ptr %17, align 8
  store i32 0, ptr %5, align 4
  br label %18

18:                                               ; preds = %34, %2
  %19 = load i32, ptr %5, align 4
  %20 = getelementptr inbounds %"class.G1NUMAStats::NodeDataArray", ptr %6, i32 0, i32 1
  %21 = load i32, ptr %20, align 4
  %22 = icmp ult i32 %19, %21
  br i1 %22, label %23, label %37

23:                                               ; preds = %18
  %24 = getelementptr inbounds %"class.G1NUMAStats::NodeDataArray", ptr %6, i32 0, i32 0
  %25 = load i32, ptr %24, align 8
  %26 = zext i32 %25 to i64
  %27 = mul i64 %26, 8
  %28 = call noundef ptr @_Z12AllocateHeapm8MEMFLAGSN17AllocFailStrategy13AllocFailEnumE(i64 noundef %27, i8 noundef zeroext 5, i32 noundef 0)
  %29 = getelementptr inbounds %"class.G1NUMAStats::NodeDataArray", ptr %6, i32 0, i32 2
  %30 = load ptr, ptr %29, align 8
  %31 = load i32, ptr %5, align 4
  %32 = zext i32 %31 to i64
  %33 = getelementptr inbounds ptr, ptr %30, i64 %32
  store ptr %28, ptr %33, align 8
  br label %34

34:                                               ; preds = %23
  %35 = load i32, ptr %5, align 4
  %36 = add i32 %35, 1
  store i32 %36, ptr %5, align 4
  br label %18, !llvm.loop !6

37:                                               ; preds = %18
  call void @_ZN11G1NUMAStats13NodeDataArray5clearEv(ptr noundef nonnull align 8 dereferenceable(16) %6)
  ret void
}