; Function Attrs: mustprogress nounwind uwtable
define hidden void @_ZN11G1NUMAStats13NodeDataArrayC2Ej(ptr nocapture noundef nonnull align 8 dereferenceable(16) %0, i32 noundef %1) unnamed_addr #1 align 2 {
  store i32 %1, ptr %0, align 8
  %3 = add i32 %1, 1
  %4 = getelementptr inbounds i8, ptr %0, i64 4
  store i32 %3, ptr %4, align 4
  %5 = zext i32 %3 to i64
  %6 = shl nuw nsw i64 %5, 3
  %7 = tail call noundef ptr @_Z12AllocateHeapm8MEMFLAGSN17AllocFailStrategy13AllocFailEnumE(i64 noundef %6, i8 noundef zeroext 5, i32 noundef 0) #11
  %8 = getelementptr inbounds i8, ptr %0, i64 8
  store ptr %7, ptr %8, align 8
  %9 = load i32, ptr %4, align 4
  %.not = icmp eq i32 %9, 0
  br i1 %.not, label %_ZN11G1NUMAStats13NodeDataArray5clearEv.exit, label %.lr.ph

.lr.ph:                                           ; preds = %2, %.lr.ph
  %indvars.iv = phi i64 [ %indvars.iv.next, %.lr.ph ], [ 0, %2 ]
  %10 = load i32, ptr %0, align 8
  %11 = zext i32 %10 to i64
  %12 = shl nuw nsw i64 %11, 3
  %13 = tail call noundef ptr @_Z12AllocateHeapm8MEMFLAGSN17AllocFailStrategy13AllocFailEnumE(i64 noundef %12, i8 noundef zeroext 5, i32 noundef 0) #11
  %14 = load ptr, ptr %8, align 8
  %15 = getelementptr inbounds ptr, ptr %14, i64 %indvars.iv
  store ptr %13, ptr %15, align 8
  %indvars.iv.next = add nuw nsw i64 %indvars.iv, 1
  %16 = load i32, ptr %4, align 4
  %17 = zext i32 %16 to i64
  %18 = icmp ult i64 %indvars.iv.next, %17
  br i1 %18, label %.lr.ph, label %._crit_edge, !llvm.loop !6

._crit_edge:                                      ; preds = %.lr.ph
  %19 = icmp eq i32 %16, 0
  br i1 %19, label %_ZN11G1NUMAStats13NodeDataArray5clearEv.exit, label %.lr.ph.i

.lr.ph.i:                                         ; preds = %._crit_edge, %.lr.ph.i
  %indvars.iv.i = phi i64 [ %indvars.iv.next.i, %.lr.ph.i ], [ 0, %._crit_edge ]
  %20 = load ptr, ptr %8, align 8
  %21 = getelementptr inbounds ptr, ptr %20, i64 %indvars.iv.i
  %22 = load ptr, ptr %21, align 8
  %23 = load i32, ptr %0, align 8
  %24 = zext i32 %23 to i64
  %25 = shl nuw nsw i64 %24, 3
  tail call void @llvm.memset.p0.i64(ptr align 1 %22, i8 0, i64 %25, i1 false)
  %indvars.iv.next.i = add nuw nsw i64 %indvars.iv.i, 1
  %26 = load i32, ptr %4, align 4
  %27 = zext i32 %26 to i64
  %28 = icmp ult i64 %indvars.iv.next.i, %27
  br i1 %28, label %.lr.ph.i, label %_ZN11G1NUMAStats13NodeDataArray5clearEv.exit, !llvm.loop !8

_ZN11G1NUMAStats13NodeDataArray5clearEv.exit:     ; preds = %.lr.ph.i, %2, %._crit_edge
  ret void
}